target datalayout = "e-m:e-p270:32:32-p271:32:32-p272:64:64-i64:64-i128:128-f80:128-n8:16:32:64-S128"
target triple = "x86_64-pc-linux-gnu"

%struct.cname = type { ptr, i8 }
%struct.parse = type { ptr, ptr, i32, ptr, i64, i64, i32, ptr, [10 x i64], [10 x i64] }

@nuls = internal global [10 x i8] zeroinitializer, align 1

; Function Attrs: nounwind uwtable
define internal signext i8 @p_b_coll_elem(ptr noundef %0, i32 noundef %1) #0 {
  %3 = alloca i8, align 1
  %4 = alloca ptr, align 8
  %5 = alloca i32, align 4
  %6 = alloca ptr, align 8
  %7 = alloca ptr, align 8
  %8 = alloca i64, align 8
  store ptr %0, ptr %4, align 8
  store i32 %1, ptr %5, align 4
  %9 = load ptr, ptr %4, align 8
  %10 = getelementptr inbounds %struct.parse, ptr %9, i32 0, i32 0
  %11 = load ptr, ptr %10, align 8
  store ptr %11, ptr %6, align 8
  br label %12

12:                                               ; preds = %55, %2
  %13 = load ptr, ptr %4, align 8
  %14 = getelementptr inbounds %struct.parse, ptr %13, i32 0, i32 1
  %15 = load ptr, ptr %14, align 8
  %16 = load ptr, ptr %4, align 8
  %17 = getelementptr inbounds %struct.parse, ptr %16, i32 0, i32 0
  %18 = load ptr, ptr %17, align 8
  %19 = ptrtoint ptr %15 to i64
  %20 = ptrtoint ptr %18 to i64
  %21 = sub i64 %19, %20
  %22 = icmp sgt i64 %21, 0
  br i1 %22, label %23, label %53

23:                                               ; preds = %12
  %24 = load ptr, ptr %4, align 8
  %25 = getelementptr inbounds %struct.parse, ptr %24, i32 0, i32 1
  %26 = load ptr, ptr %25, align 8
  %27 = load ptr, ptr %4, align 8
  %28 = getelementptr inbounds %struct.parse, ptr %27, i32 0, i32 0
  %29 = load ptr, ptr %28, align 8
  %30 = ptrtoint ptr %26 to i64
  %31 = ptrtoint ptr %29 to i64
  %32 = sub i64 %30, %31
  %33 = icmp sgt i64 %32, 1
  br i1 %33, label %34, label %50

34:                                               ; preds = %23
  %35 = load ptr, ptr %4, align 8
  %36 = getelementptr inbounds %struct.parse, ptr %35, i32 0, i32 0
  %37 = load ptr, ptr %36, align 8
  %38 = load i8, ptr %37, align 1
  %39 = sext i8 %38 to i32
  %40 = load i32, ptr %5, align 4
  %41 = icmp eq i32 %39, %40
  br i1 %41, label %42, label %50

42:                                               ; preds = %34
  %43 = load ptr, ptr %4, align 8
  %44 = getelementptr inbounds %struct.parse, ptr %43, i32 0, i32 0
  %45 = load ptr, ptr %44, align 8
  %46 = getelementptr inbounds i8, ptr %45, i64 1
  %47 = load i8, ptr %46, align 1
  %48 = sext i8 %47 to i32
  %49 = icmp eq i32 %48, 93
  br label %50

50:                                               ; preds = %42, %34, %23
  %51 = phi i1 [ false, %34 ], [ false, %23 ], [ %49, %42 ]
  %52 = xor i1 %51, true
  br label %53

53:                                               ; preds = %50, %12
  %54 = phi i1 [ false, %12 ], [ %52, %50 ]
  br i1 %54, label %55, label %60

55:                                               ; preds = %53
  %56 = load ptr, ptr %4, align 8
  %57 = getelementptr inbounds %struct.parse, ptr %56, i32 0, i32 0
  %58 = load ptr, ptr %57, align 8
  %59 = getelementptr inbounds i8, ptr %58, i32 1
  store ptr %59, ptr %57, align 8
  br label %12

60:                                               ; preds = %53
  %61 = load ptr, ptr %4, align 8
  %62 = getelementptr inbounds %struct.parse, ptr %61, i32 0, i32 1
  %63 = load ptr, ptr %62, align 8
  %64 = load ptr, ptr %4, align 8
  %65 = getelementptr inbounds %struct.parse, ptr %64, i32 0, i32 0
  %66 = load ptr, ptr %65, align 8
  %67 = ptrtoint ptr %63 to i64
  %68 = ptrtoint ptr %66 to i64
  %69 = sub i64 %67, %68
  %70 = icmp sgt i64 %69, 0
  br i1 %70, label %73, label %71

71:                                               ; preds = %60
  %72 = load ptr, ptr %4, align 8
  call void @seterr(ptr noundef %72, i32 noundef 7)
  store i8 0, ptr %3, align 1
  br label %117

73:                                               ; preds = %60
  %74 = load ptr, ptr %4, align 8
  %75 = getelementptr inbounds %struct.parse, ptr %74, i32 0, i32 0
  %76 = load ptr, ptr %75, align 8
  %77 = load ptr, ptr %6, align 8
  %78 = ptrtoint ptr %76 to i64
  %79 = ptrtoint ptr %77 to i64
  %80 = sub i64 %78, %79
  store i64 %80, ptr %8, align 8
  store ptr @cnames, ptr %7, align 8
  br label %81

81:                                               ; preds = %106, %73
  %82 = load ptr, ptr %7, align 8
  %83 = getelementptr inbounds %struct.cname, ptr %82, i32 0, i32 0
  %84 = load ptr, ptr %83, align 8
  %85 = icmp ne ptr %84, null
  br i1 %85, label %86, label %109

86:                                               ; preds = %81
  %87 = load ptr, ptr %7, align 8
  %88 = getelementptr inbounds %struct.cname, ptr %87, i32 0, i32 0
  %89 = load ptr, ptr %88, align 8
  %90 = load ptr, ptr %6, align 8
  %91 = load i64, ptr %8, align 8
  %92 = call i32 @strncmp(ptr noundef %89, ptr noundef %90, i64 noundef %91) #7
  %93 = icmp eq i32 %92, 0
  br i1 %93, label %94, label %105

94:                                               ; preds = %86
  %95 = load ptr, ptr %7, align 8
  %96 = getelementptr inbounds %struct.cname, ptr %95, i32 0, i32 0
  %97 = load ptr, ptr %96, align 8
  %98 = call i64 @strlen(ptr noundef %97) #7
  %99 = load i64, ptr %8, align 8
  %100 = icmp eq i64 %98, %99
  br i1 %100, label %101, label %105

101:                                              ; preds = %94
  %102 = load ptr, ptr %7, align 8
  %103 = getelementptr inbounds %struct.cname, ptr %102, i32 0, i32 1
  %104 = load i8, ptr %103, align 8
  store i8 %104, ptr %3, align 1
  br label %117

105:                                              ; preds = %94, %86
  br label %106

106:                                              ; preds = %105
  %107 = load ptr, ptr %7, align 8
  %108 = getelementptr inbounds %struct.cname, ptr %107, i32 1
  store ptr %108, ptr %7, align 8
  br label %81

109:                                              ; preds = %81
  %110 = load i64, ptr %8, align 8
  %111 = icmp eq i64 %110, 1
  br i1 %111, label %112, label %115

112:                                              ; preds = %109
  %113 = load ptr, ptr %6, align 8
  %114 = load i8, ptr %113, align 1
  store i8 %114, ptr %3, align 1
  br label %117

115:                                              ; preds = %109
  %116 = load ptr, ptr %4, align 8
  call void @seterr(ptr noundef %116, i32 noundef 3)
  store i8 0, ptr %3, align 1
  br label %117

117:                                              ; preds = %115, %112, %101, %71
  %118 = load i8, ptr %3, align 1
  ret i8 %118
}

; Function Attrs: nounwind uwtable
define internal void @seterr(ptr noundef %0, i32 noundef %1) #0 {
  %3 = alloca ptr, align 8
  %4 = alloca i32, align 4
  store ptr %0, ptr %3, align 8
  store i32 %1, ptr %4, align 4
  %5 = load ptr, ptr %3, align 8
  %6 = getelementptr inbounds %struct.parse, ptr %5, i32 0, i32 2
  %7 = load i32, ptr %6, align 8
  %8 = icmp eq i32 %7, 0
  br i1 %8, label %9, label %13

9:                                                ; preds = %2
  %10 = load i32, ptr %4, align 4
  %11 = load ptr, ptr %3, align 8
  %12 = getelementptr inbounds %struct.parse, ptr %11, i32 0, i32 2
  store i32 %10, ptr %12, align 8
  br label %13

13:                                               ; preds = %9, %2
  %14 = load ptr, ptr %3, align 8
  %15 = getelementptr inbounds %struct.parse, ptr %14, i32 0, i32 0
  store ptr @nuls, ptr %15, align 8
  %16 = load ptr, ptr %3, align 8
  %17 = getelementptr inbounds %struct.parse, ptr %16, i32 0, i32 1
  store ptr @nuls, ptr %17, align 8
  ret void
}

; Function Attrs: nounwind uwtable
define internal signext i8 @p_b_symbol(ptr noundef %0) #0 {
  %2 = alloca i8, align 1
  %3 = alloca ptr, align 8
  %4 = alloca i8, align 1
  store ptr %0, ptr %3, align 8
  br label %5

5:                                                ; preds = %1
  %6 = load ptr, ptr %3, align 8
  %7 = getelementptr inbounds %struct.parse, ptr %6, i32 0, i32 1
  %8 = load ptr, ptr %7, align 8
  %9 = load ptr, ptr %3, align 8
  %10 = getelementptr inbounds %struct.parse, ptr %9, i32 0, i32 0
  %11 = load ptr, ptr %10, align 8
  %12 = ptrtoint ptr %8 to i64
  %13 = ptrtoint ptr %11 to i64
  %14 = sub i64 %12, %13
  %15 = icmp sgt i64 %14, 0
  br i1 %15, label %18, label %16

16:                                               ; preds = %5
  %17 = load ptr, ptr %3, align 8
  call void @seterr(ptr noundef %17, i32 noundef 7)
  br label %18

18:                                               ; preds = %16, %5
  br label %19

19:                                               ; preds = %18
  %20 = load ptr, ptr %3, align 8
  %21 = getelementptr inbounds %struct.parse, ptr %20, i32 0, i32 1
  %22 = load ptr, ptr %21, align 8
  %23 = load ptr, ptr %3, align 8
  %24 = getelementptr inbounds %struct.parse, ptr %23, i32 0, i32 0
  %25 = load ptr, ptr %24, align 8
  %26 = ptrtoint ptr %22 to i64
  %27 = ptrtoint ptr %25 to i64
  %28 = sub i64 %26, %27
  %29 = icmp sgt i64 %28, 1
  br i1 %29, label %30, label %50

30:                                               ; preds = %19
  %31 = load ptr, ptr %3, align 8
  %32 = getelementptr inbounds %struct.parse, ptr %31, i32 0, i32 0
  %33 = load ptr, ptr %32, align 8
  %34 = load i8, ptr %33, align 1
  %35 = sext i8 %34 to i32
  %36 = icmp eq i32 %35, 91
  br i1 %36, label %37, label %50

37:                                               ; preds = %30
  %38 = load ptr, ptr %3, align 8
  %39 = getelementptr inbounds %struct.parse, ptr %38, i32 0, i32 0
  %40 = load ptr, ptr %39, align 8
  %41 = getelementptr inbounds i8, ptr %40, i64 1
  %42 = load i8, ptr %41, align 1
  %43 = sext i8 %42 to i32
  %44 = icmp eq i32 %43, 46
  br i1 %44, label %45, label %50

45:                                               ; preds = %37
  %46 = load ptr, ptr %3, align 8
  %47 = getelementptr inbounds %struct.parse, ptr %46, i32 0, i32 0
  %48 = load ptr, ptr %47, align 8
  %49 = getelementptr inbounds i8, ptr %48, i64 2
  store ptr %49, ptr %47, align 8
  br i1 true, label %57, label %51

50:                                               ; preds = %37, %30, %19
  br i1 false, label %57, label %51

51:                                               ; preds = %50, %45
  %52 = load ptr, ptr %3, align 8
  %53 = getelementptr inbounds %struct.parse, ptr %52, i32 0, i32 0
  %54 = load ptr, ptr %53, align 8
  %55 = getelementptr inbounds i8, ptr %54, i32 1
  store ptr %55, ptr %53, align 8
  %56 = load i8, ptr %54, align 1
  store i8 %56, ptr %2, align 1
  br label %97

57:                                               ; preds = %50, %45
  %58 = load ptr, ptr %3, align 8
  %59 = call signext i8 @p_b_coll_elem(ptr noundef %58, i32 noundef 46)
  store i8 %59, ptr %4, align 1
  br label %60

60:                                               ; preds = %57
  %61 = load ptr, ptr %3, align 8
  %62 = getelementptr inbounds %struct.parse, ptr %61, i32 0, i32 1
  %63 = load ptr, ptr %62, align 8
  %64 = load ptr, ptr %3, align 8
  %65 = getelementptr inbounds %struct.parse, ptr %64, i32 0, i32 0
  %66 = load ptr, ptr %65, align 8
  %67 = ptrtoint ptr %63 to i64
  %68 = ptrtoint ptr %66 to i64
  %69 = sub i64 %67, %68
  %70 = icmp sgt i64 %69, 1
  br i1 %70, label %71, label %91

71:                                               ; preds = %60
  %72 = load ptr, ptr %3, align 8
  %73 = getelementptr inbounds %struct.parse, ptr %72, i32 0, i32 0
  %74 = load ptr, ptr %73, align 8
  %75 = load i8, ptr %74, align 1
  %76 = sext i8 %75 to i32
  %77 = icmp eq i32 %76, 46
  br i1 %77, label %78, label %91

78:                                               ; preds = %71
  %79 = load ptr, ptr %3, align 8
  %80 = getelementptr inbounds %struct.parse, ptr %79, i32 0, i32 0
  %81 = load ptr, ptr %80, align 8
  %82 = getelementptr inbounds i8, ptr %81, i64 1
  %83 = load i8, ptr %82, align 1
  %84 = sext i8 %83 to i32
  %85 = icmp eq i32 %84, 93
  br i1 %85, label %86, label %91

86:                                               ; preds = %78
  %87 = load ptr, ptr %3, align 8
  %88 = getelementptr inbounds %struct.parse, ptr %87, i32 0, i32 0
  %89 = load ptr, ptr %88, align 8
  %90 = getelementptr inbounds i8, ptr %89, i64 2
  store ptr %90, ptr %88, align 8
  br i1 true, label %94, label %92

91:                                               ; preds = %78, %71, %60
  br i1 false, label %94, label %92

92:                                               ; preds = %91, %86
  %93 = load ptr, ptr %3, align 8
  call void @seterr(ptr noundef %93, i32 noundef 3)
  br label %94

94:                                               ; preds = %92, %91, %86
  br label %95

95:                                               ; preds = %94
  %96 = load i8, ptr %4, align 1
  store i8 %96, ptr %2, align 1
  br label %97

97:                                               ; preds = %95, %51
  %98 = load i8, ptr %2, align 1
  ret i8 %98
}