; Function Attrs: nofree nounwind memory(read, argmem: readwrite, inaccessiblemem: none) uwtable
define internal fastcc signext i8 @p_b_symbol(ptr nocapture noundef %0) unnamed_addr #6 {
  %2 = getelementptr inbounds i8, ptr %0, i64 8
  %3 = load ptr, ptr %2, align 8
  %4 = load ptr, ptr %0, align 8
  %5 = ptrtoint ptr %3 to i64
  %6 = ptrtoint ptr %4 to i64
  %7 = sub i64 %5, %6
  %8 = icmp sgt i64 %7, 0
  br i1 %8, label %14, label %9

9:                                                ; preds = %1
  %10 = getelementptr inbounds i8, ptr %0, i64 16
  %11 = load i32, ptr %10, align 8
  %12 = icmp eq i32 %11, 0
  br i1 %12, label %13, label %seterr.exit

13:                                               ; preds = %9
  store i32 7, ptr %10, align 8
  br label %seterr.exit

seterr.exit:                                      ; preds = %9, %13
  store ptr @nuls, ptr %0, align 8
  store ptr @nuls, ptr %2, align 8
  br label %14

14:                                               ; preds = %1, %seterr.exit
  %15 = phi ptr [ %4, %1 ], [ @nuls, %seterr.exit ]
  %16 = phi ptr [ %3, %1 ], [ @nuls, %seterr.exit ]
  %17 = ptrtoint ptr %16 to i64
  %18 = ptrtoint ptr %15 to i64
  %19 = sub i64 %17, %18
  %20 = icmp sgt i64 %19, 1
  br i1 %20, label %21, label %81

21:                                               ; preds = %14
  %22 = load i8, ptr %15, align 1
  %23 = icmp eq i8 %22, 91
  br i1 %23, label %24, label %81

24:                                               ; preds = %21
  %25 = getelementptr inbounds i8, ptr %15, i64 1
  %26 = load i8, ptr %25, align 1
  %27 = icmp eq i8 %26, 46
  br i1 %27, label %28, label %81

28:                                               ; preds = %24
  %29 = getelementptr inbounds i8, ptr %15, i64 2
  store ptr %29, ptr %0, align 8
  %30 = ptrtoint ptr %29 to i64
  %31 = sub i64 %17, %30
  %32 = icmp sgt i64 %31, 0
  br i1 %32, label %.lr.ph.i, label %.critedge.i

.lr.ph.i:                                         ; preds = %28, %.critedge30.i
  %33 = phi i64 [ %45, %.critedge30.i ], [ %31, %28 ]
  %34 = phi i64 [ %44, %.critedge30.i ], [ %30, %28 ]
  %35 = phi ptr [ %43, %.critedge30.i ], [ %29, %28 ]
  %.not.i = icmp eq i64 %33, 1
  br i1 %.not.i, label %.critedge30.i, label %36

36:                                               ; preds = %.lr.ph.i
  %37 = load i8, ptr %35, align 1
  %38 = icmp eq i8 %37, 46
  br i1 %38, label %39, label %.critedge30.i

39:                                               ; preds = %36
  %40 = getelementptr inbounds i8, ptr %35, i64 1
  %41 = load i8, ptr %40, align 1
  %42 = icmp eq i8 %41, 93
  br i1 %42, label %51, label %.critedge30.i

.critedge30.i:                                    ; preds = %39, %36, %.lr.ph.i
  %43 = getelementptr inbounds i8, ptr %35, i64 1
  store ptr %43, ptr %0, align 8
  %44 = ptrtoint ptr %43 to i64
  %45 = sub i64 %17, %44
  %46 = icmp sgt i64 %45, 0
  br i1 %46, label %.lr.ph.i, label %.critedge.i

.critedge.i:                                      ; preds = %.critedge30.i, %28
  %47 = getelementptr inbounds i8, ptr %0, i64 16
  %48 = load i32, ptr %47, align 8
  %49 = icmp eq i32 %48, 0
  br i1 %49, label %50, label %seterr.exit.i

50:                                               ; preds = %.critedge.i
  store i32 7, ptr %47, align 8
  br label %seterr.exit.i

seterr.exit.i:                                    ; preds = %50, %.critedge.i
  store ptr @nuls, ptr %0, align 8
  store ptr @nuls, ptr %2, align 8
  br label %p_b_coll_elem.exit

51:                                               ; preds = %39
  %52 = sub i64 %34, %30
  br label %53

53:                                               ; preds = %63, %51
  %54 = phi ptr [ @.str.26, %51 ], [ %65, %63 ]
  %.02536.i = phi ptr [ @cnames, %51 ], [ %64, %63 ]
  %55 = tail call i32 @strncmp(ptr noundef nonnull %54, ptr noundef nonnull %29, i64 noundef %52) #11
  %56 = icmp eq i32 %55, 0
  br i1 %56, label %57, label %63

57:                                               ; preds = %53
  %58 = tail call i64 @strlen(ptr noundef nonnull dereferenceable(1) %54) #11
  %59 = icmp eq i64 %58, %52
  br i1 %59, label %60, label %63

60:                                               ; preds = %57
  %61 = getelementptr inbounds i8, ptr %.02536.i, i64 8
  %62 = load i8, ptr %61, align 8
  br label %p_b_coll_elem.exit

63:                                               ; preds = %57, %53
  %64 = getelementptr inbounds i8, ptr %.02536.i, i64 16
  %65 = load ptr, ptr %64, align 8
  %.not28.i = icmp eq ptr %65, null
  br i1 %.not28.i, label %66, label %53

66:                                               ; preds = %63
  %67 = icmp eq i64 %52, 1
  br i1 %67, label %68, label %70

68:                                               ; preds = %66
  %69 = load i8, ptr %29, align 1
  br label %p_b_coll_elem.exit

70:                                               ; preds = %66
  %71 = getelementptr inbounds i8, ptr %0, i64 16
  %72 = load i32, ptr %71, align 8
  %73 = icmp eq i32 %72, 0
  br i1 %73, label %74, label %seterr.exit31.i

74:                                               ; preds = %70
  store i32 3, ptr %71, align 8
  br label %seterr.exit31.i

seterr.exit31.i:                                  ; preds = %74, %70
  store ptr @nuls, ptr %0, align 8
  store ptr @nuls, ptr %2, align 8
  br label %p_b_coll_elem.exit

p_b_coll_elem.exit:                               ; preds = %seterr.exit.i, %60, %68, %seterr.exit31.i
  %75 = phi ptr [ %35, %60 ], [ %35, %68 ], [ @nuls, %seterr.exit31.i ], [ @nuls, %seterr.exit.i ]
  %76 = phi ptr [ %16, %60 ], [ %16, %68 ], [ @nuls, %seterr.exit31.i ], [ @nuls, %seterr.exit.i ]
  %.0.i = phi i8 [ %62, %60 ], [ %69, %68 ], [ 0, %seterr.exit31.i ], [ 0, %seterr.exit.i ]
  %77 = ptrtoint ptr %76 to i64
  %78 = ptrtoint ptr %75 to i64
  %79 = sub i64 %77, %78
  %80 = icmp sgt i64 %79, 1
  br i1 %80, label %84, label %93

81:                                               ; preds = %14, %21, %24
  %82 = getelementptr inbounds i8, ptr %15, i64 1
  store ptr %82, ptr %0, align 8
  %83 = load i8, ptr %15, align 1
  br label %98

84:                                               ; preds = %p_b_coll_elem.exit
  %85 = load i8, ptr %75, align 1
  %86 = icmp eq i8 %85, 46
  br i1 %86, label %87, label %93

87:                                               ; preds = %84
  %88 = getelementptr inbounds i8, ptr %75, i64 1
  %89 = load i8, ptr %88, align 1
  %90 = icmp eq i8 %89, 93
  br i1 %90, label %91, label %93

91:                                               ; preds = %87
  %92 = getelementptr inbounds i8, ptr %75, i64 2
  store ptr %92, ptr %0, align 8
  br label %98

93:                                               ; preds = %p_b_coll_elem.exit, %84, %87
  %94 = getelementptr inbounds i8, ptr %0, i64 16
  %95 = load i32, ptr %94, align 8
  %96 = icmp eq i32 %95, 0
  br i1 %96, label %97, label %seterr.exit17

97:                                               ; preds = %93
  store i32 3, ptr %94, align 8
  br label %seterr.exit17

seterr.exit17:                                    ; preds = %93, %97
  store ptr @nuls, ptr %0, align 8
  store ptr @nuls, ptr %2, align 8
  br label %98

98:                                               ; preds = %91, %seterr.exit17, %81
  %.0 = phi i8 [ %83, %81 ], [ %.0.i, %seterr.exit17 ], [ %.0.i, %91 ]
  ret i8 %.0
}